; ModuleID = '14/1459.c'
source_filename = "14/1459.c"
target datalayout = "e-m:e-p270:32:32-p271:32:32-p272:64:64-i64:64-f80:128-n8:16:32:64-S128"
target triple = "x86_64-pc-linux-gnu"

%struct.student = type { i32, i32, i32, i32 }

@.str = private unnamed_addr constant [3 x i8] c"%d\00", align 1
@.str.1 = private unnamed_addr constant [7 x i8] c"%d%d%d\00", align 1
@stu = common dso_local global [100000 x %struct.student] zeroinitializer, align 16
@.str.2 = private unnamed_addr constant [7 x i8] c"%d %d\0A\00", align 1

; Function Attrs: noinline nounwind uwtable
define dso_local i32 @main(i32 %0, i8** %1) #0 {
  %3 = alloca i32, align 4
  %4 = alloca i32, align 4
  %5 = alloca i8**, align 8
  %6 = alloca i32, align 4
  %7 = alloca i32, align 4
  %8 = alloca i32, align 4
  %9 = alloca i32, align 4
  %10 = alloca i32, align 4
  %11 = alloca i32, align 4
  store i32 0, i32* %3, align 4
  store i32 %0, i32* %4, align 4
  store i8** %1, i8*** %5, align 8
  %12 = call i32 (i8*, ...) @__isoc99_scanf(i8* getelementptr inbounds ([3 x i8], [3 x i8]* @.str, i64 0, i64 0), i32* %6)
  store i32 0, i32* %7, align 4
  br label %13

13:                                               ; preds = %46, %2
  %14 = load i32, i32* %7, align 4
  %15 = load i32, i32* %6, align 4
  %16 = icmp slt i32 %14, %15
  br i1 %16, label %17, label %49

17:                                               ; preds = %13
  %18 = load i32, i32* %7, align 4
  %19 = sext i32 %18 to i64
  %20 = getelementptr inbounds [100000 x %struct.student], [100000 x %struct.student]* @stu, i64 0, i64 %19
  %21 = getelementptr inbounds %struct.student, %struct.student* %20, i32 0, i32 0
  %22 = load i32, i32* %7, align 4
  %23 = sext i32 %22 to i64
  %24 = getelementptr inbounds [100000 x %struct.student], [100000 x %struct.student]* @stu, i64 0, i64 %23
  %25 = getelementptr inbounds %struct.student, %struct.student* %24, i32 0, i32 1
  %26 = load i32, i32* %7, align 4
  %27 = sext i32 %26 to i64
  %28 = getelementptr inbounds [100000 x %struct.student], [100000 x %struct.student]* @stu, i64 0, i64 %27
  %29 = getelementptr inbounds %struct.student, %struct.student* %28, i32 0, i32 2
  %30 = call i32 (i8*, ...) @__isoc99_scanf(i8* getelementptr inbounds ([7 x i8], [7 x i8]* @.str.1, i64 0, i64 0), i32* %21, i32* %25, i32* %29)
  %31 = load i32, i32* %7, align 4
  %32 = sext i32 %31 to i64
  %33 = getelementptr inbounds [100000 x %struct.student], [100000 x %struct.student]* @stu, i64 0, i64 %32
  %34 = getelementptr inbounds %struct.student, %struct.student* %33, i32 0, i32 1
  %35 = load i32, i32* %34, align 4
  %36 = load i32, i32* %7, align 4
  %37 = sext i32 %36 to i64
  %38 = getelementptr inbounds [100000 x %struct.student], [100000 x %struct.student]* @stu, i64 0, i64 %37
  %39 = getelementptr inbounds %struct.student, %struct.student* %38, i32 0, i32 2
  %40 = load i32, i32* %39, align 8
  %41 = add nsw i32 %35, %40
  %42 = load i32, i32* %7, align 4
  %43 = sext i32 %42 to i64
  %44 = getelementptr inbounds [100000 x %struct.student], [100000 x %struct.student]* @stu, i64 0, i64 %43
  %45 = getelementptr inbounds %struct.student, %struct.student* %44, i32 0, i32 3
  store i32 %41, i32* %45, align 4
  br label %46

46:                                               ; preds = %17
  %47 = load i32, i32* %7, align 4
  %48 = add nsw i32 %47, 1
  store i32 %48, i32* %7, align 4
  br label %13

49:                                               ; preds = %13
  %50 = load i32, i32* getelementptr inbounds ([100000 x %struct.student], [100000 x %struct.student]* @stu, i64 0, i64 0, i32 3), align 4
  store i32 %50, i32* %8, align 4
  %51 = load i32, i32* getelementptr inbounds ([100000 x %struct.student], [100000 x %struct.student]* @stu, i64 0, i64 0, i32 3), align 4
  store i32 %51, i32* %9, align 4
  %52 = load i32, i32* getelementptr inbounds ([100000 x %struct.student], [100000 x %struct.student]* @stu, i64 0, i64 0, i32 3), align 4
  store i32 %52, i32* %10, align 4
  store i32 0, i32* %7, align 4
  br label %53

53:                                               ; preds = %119, %49
  %54 = load i32, i32* %7, align 4
  %55 = load i32, i32* %6, align 4
  %56 = icmp slt i32 %54, %55
  br i1 %56, label %57, label %122

57:                                               ; preds = %53
  %58 = load i32, i32* %7, align 4
  %59 = sext i32 %58 to i64
  %60 = getelementptr inbounds [100000 x %struct.student], [100000 x %struct.student]* @stu, i64 0, i64 %59
  %61 = getelementptr inbounds %struct.student, %struct.student* %60, i32 0, i32 3
  %62 = load i32, i32* %61, align 4
  %63 = load i32, i32* %8, align 4
  %64 = icmp sgt i32 %62, %63
  br i1 %64, label %65, label %73

65:                                               ; preds = %57
  %66 = load i32, i32* %9, align 4
  store i32 %66, i32* %10, align 4
  %67 = load i32, i32* %8, align 4
  store i32 %67, i32* %9, align 4
  %68 = load i32, i32* %7, align 4
  %69 = sext i32 %68 to i64
  %70 = getelementptr inbounds [100000 x %struct.student], [100000 x %struct.student]* @stu, i64 0, i64 %69
  %71 = getelementptr inbounds %struct.student, %struct.student* %70, i32 0, i32 3
  %72 = load i32, i32* %71, align 4
  store i32 %72, i32* %8, align 4
  br label %119

73:                                               ; preds = %57
  %74 = load i32, i32* %7, align 4
  %75 = sext i32 %74 to i64
  %76 = getelementptr inbounds [100000 x %struct.student], [100000 x %struct.student]* @stu, i64 0, i64 %75
  %77 = getelementptr inbounds %struct.student, %struct.student* %76, i32 0, i32 3
  %78 = load i32, i32* %77, align 4
  %79 = load i32, i32* %8, align 4
  %80 = icmp slt i32 %78, %79
  br i1 %80, label %81, label %96

81:                                               ; preds = %73
  %82 = load i32, i32* %7, align 4
  %83 = sext i32 %82 to i64
  %84 = getelementptr inbounds [100000 x %struct.student], [100000 x %struct.student]* @stu, i64 0, i64 %83
  %85 = getelementptr inbounds %struct.student, %struct.student* %84, i32 0, i32 3
  %86 = load i32, i32* %85, align 4
  %87 = load i32, i32* %9, align 4
  %88 = icmp sgt i32 %86, %87
  br i1 %88, label %89, label %96

89:                                               ; preds = %81
  %90 = load i32, i32* %9, align 4
  store i32 %90, i32* %10, align 4
  %91 = load i32, i32* %7, align 4
  %92 = sext i32 %91 to i64
  %93 = getelementptr inbounds [100000 x %struct.student], [100000 x %struct.student]* @stu, i64 0, i64 %92
  %94 = getelementptr inbounds %struct.student, %struct.student* %93, i32 0, i32 3
  %95 = load i32, i32* %94, align 4
  store i32 %95, i32* %9, align 4
  br label %119

96:                                               ; preds = %81, %73
  %97 = load i32, i32* %7, align 4
  %98 = sext i32 %97 to i64
  %99 = getelementptr inbounds [100000 x %struct.student], [100000 x %struct.student]* @stu, i64 0, i64 %98
  %100 = getelementptr inbounds %struct.student, %struct.student* %99, i32 0, i32 3
  %101 = load i32, i32* %100, align 4
  %102 = load i32, i32* %9, align 4
  %103 = icmp slt i32 %101, %102
  br i1 %103, label %104, label %118

104:                                              ; preds = %96
  %105 = load i32, i32* %7, align 4
  %106 = sext i32 %105 to i64
  %107 = getelementptr inbounds [100000 x %struct.student], [100000 x %struct.student]* @stu, i64 0, i64 %106
  %108 = getelementptr inbounds %struct.student, %struct.student* %107, i32 0, i32 3
  %109 = load i32, i32* %108, align 4
  %110 = load i32, i32* %10, align 4
  %111 = icmp sgt i32 %109, %110
  br i1 %111, label %112, label %118

112:                                              ; preds = %104
  %113 = load i32, i32* %7, align 4
  %114 = sext i32 %113 to i64
  %115 = getelementptr inbounds [100000 x %struct.student], [100000 x %struct.student]* @stu, i64 0, i64 %114
  %116 = getelementptr inbounds %struct.student, %struct.student* %115, i32 0, i32 3
  %117 = load i32, i32* %116, align 4
  store i32 %117, i32* %10, align 4
  br label %119

118:                                              ; preds = %104, %96
  br label %119

119:                                              ; preds = %118, %112, %89, %65
  %120 = load i32, i32* %7, align 4
  %121 = add nsw i32 %120, 1
  store i32 %121, i32* %7, align 4
  br label %53

122:                                              ; preds = %53
  store i32 0, i32* %11, align 4
  store i32 0, i32* %7, align 4
  br label %123

123:                                              ; preds = %155, %122
  %124 = load i32, i32* %7, align 4
  %125 = load i32, i32* %6, align 4
  %126 = icmp slt i32 %124, %125
  br i1 %126, label %127, label %130

127:                                              ; preds = %123
  %128 = load i32, i32* %11, align 4
  %129 = icmp slt i32 %128, 3
  br label %130

130:                                              ; preds = %127, %123
  %131 = phi i1 [ false, %123 ], [ %129, %127 ]
  br i1 %131, label %132, label %158

132:                                              ; preds = %130
  %133 = load i32, i32* %7, align 4
  %134 = sext i32 %133 to i64
  %135 = getelementptr inbounds [100000 x %struct.student], [100000 x %struct.student]* @stu, i64 0, i64 %134
  %136 = getelementptr inbounds %struct.student, %struct.student* %135, i32 0, i32 3
  %137 = load i32, i32* %136, align 4
  %138 = load i32, i32* %8, align 4
  %139 = icmp eq i32 %137, %138
  br i1 %139, label %140, label %154

140:                                              ; preds = %132
  %141 = load i32, i32* %7, align 4
  %142 = sext i32 %141 to i64
  %143 = getelementptr inbounds [100000 x %struct.student], [100000 x %struct.student]* @stu, i64 0, i64 %142
  %144 = getelementptr inbounds %struct.student, %struct.student* %143, i32 0, i32 0
  %145 = load i32, i32* %144, align 16
  %146 = load i32, i32* %7, align 4
  %147 = sext i32 %146 to i64
  %148 = getelementptr inbounds [100000 x %struct.student], [100000 x %struct.student]* @stu, i64 0, i64 %147
  %149 = getelementptr inbounds %struct.student, %struct.student* %148, i32 0, i32 3
  %150 = load i32, i32* %149, align 4
  %151 = call i32 (i8*, ...) @printf(i8* getelementptr inbounds ([7 x i8], [7 x i8]* @.str.2, i64 0, i64 0), i32 %145, i32 %150)
  %152 = load i32, i32* %11, align 4
  %153 = add nsw i32 %152, 1
  store i32 %153, i32* %11, align 4
  br label %154

154:                                              ; preds = %140, %132
  br label %155

155:                                              ; preds = %154
  %156 = load i32, i32* %7, align 4
  %157 = add nsw i32 %156, 1
  store i32 %157, i32* %7, align 4
  br label %123

158:                                              ; preds = %130
  store i32 0, i32* %7, align 4
  br label %159

159:                                              ; preds = %191, %158
  %160 = load i32, i32* %7, align 4
  %161 = load i32, i32* %6, align 4
  %162 = icmp slt i32 %160, %161
  br i1 %162, label %163, label %166

163:                                              ; preds = %159
  %164 = load i32, i32* %11, align 4
  %165 = icmp slt i32 %164, 3
  br label %166

166:                                              ; preds = %163, %159
  %167 = phi i1 [ false, %159 ], [ %165, %163 ]
  br i1 %167, label %168, label %194

168:                                              ; preds = %166
  %169 = load i32, i32* %7, align 4
  %170 = sext i32 %169 to i64
  %171 = getelementptr inbounds [100000 x %struct.student], [100000 x %struct.student]* @stu, i64 0, i64 %170
  %172 = getelementptr inbounds %struct.student, %struct.student* %171, i32 0, i32 3
  %173 = load i32, i32* %172, align 4
  %174 = load i32, i32* %9, align 4
  %175 = icmp eq i32 %173, %174
  br i1 %175, label %176, label %190

176:                                              ; preds = %168
  %177 = load i32, i32* %7, align 4
  %178 = sext i32 %177 to i64
  %179 = getelementptr inbounds [100000 x %struct.student], [100000 x %struct.student]* @stu, i64 0, i64 %178
  %180 = getelementptr inbounds %struct.student, %struct.student* %179, i32 0, i32 0
  %181 = load i32, i32* %180, align 16
  %182 = load i32, i32* %7, align 4
  %183 = sext i32 %182 to i64
  %184 = getelementptr inbounds [100000 x %struct.student], [100000 x %struct.student]* @stu, i64 0, i64 %183
  %185 = getelementptr inbounds %struct.student, %struct.student* %184, i32 0, i32 3
  %186 = load i32, i32* %185, align 4
  %187 = call i32 (i8*, ...) @printf(i8* getelementptr inbounds ([7 x i8], [7 x i8]* @.str.2, i64 0, i64 0), i32 %181, i32 %186)
  %188 = load i32, i32* %11, align 4
  %189 = add nsw i32 %188, 1
  store i32 %189, i32* %11, align 4
  br label %190

190:                                              ; preds = %176, %168
  br label %191

191:                                              ; preds = %190
  %192 = load i32, i32* %7, align 4
  %193 = add nsw i32 %192, 1
  store i32 %193, i32* %7, align 4
  br label %159

194:                                              ; preds = %166
  store i32 0, i32* %7, align 4
  br label %195

195:                                              ; preds = %227, %194
  %196 = load i32, i32* %7, align 4
  %197 = load i32, i32* %6, align 4
  %198 = icmp slt i32 %196, %197
  br i1 %198, label %199, label %202

199:                                              ; preds = %195
  %200 = load i32, i32* %11, align 4
  %201 = icmp slt i32 %200, 3
  br label %202

202:                                              ; preds = %199, %195
  %203 = phi i1 [ false, %195 ], [ %201, %199 ]
  br i1 %203, label %204, label %230

204:                                              ; preds = %202
  %205 = load i32, i32* %7, align 4
  %206 = sext i32 %205 to i64
  %207 = getelementptr inbounds [100000 x %struct.student], [100000 x %struct.student]* @stu, i64 0, i64 %206
  %208 = getelementptr inbounds %struct.student, %struct.student* %207, i32 0, i32 3
  %209 = load i32, i32* %208, align 4
  %210 = load i32, i32* %10, align 4
  %211 = icmp eq i32 %209, %210
  br i1 %211, label %212, label %226

212:                                              ; preds = %204
  %213 = load i32, i32* %7, align 4
  %214 = sext i32 %213 to i64
  %215 = getelementptr inbounds [100000 x %struct.student], [100000 x %struct.student]* @stu, i64 0, i64 %214
  %216 = getelementptr inbounds %struct.student, %struct.student* %215, i32 0, i32 0
  %217 = load i32, i32* %216, align 16
  %218 = load i32, i32* %7, align 4
  %219 = sext i32 %218 to i64
  %220 = getelementptr inbounds [100000 x %struct.student], [100000 x %struct.student]* @stu, i64 0, i64 %219
  %221 = getelementptr inbounds %struct.student, %struct.student* %220, i32 0, i32 3
  %222 = load i32, i32* %221, align 4
  %223 = call i32 (i8*, ...) @printf(i8* getelementptr inbounds ([7 x i8], [7 x i8]* @.str.2, i64 0, i64 0), i32 %217, i32 %222)
  %224 = load i32, i32* %11, align 4
  %225 = add nsw i32 %224, 1
  store i32 %225, i32* %11, align 4
  br label %226

226:                                              ; preds = %212, %204
  br label %227

227:                                              ; preds = %226
  %228 = load i32, i32* %7, align 4
  %229 = add nsw i32 %228, 1
  store i32 %229, i32* %7, align 4
  br label %195

230:                                              ; preds = %202
  ret i32 0
}

declare dso_local i32 @__isoc99_scanf(i8*, ...) #1

declare dso_local i32 @printf(i8*, ...) #1


!llvm.module.flags = !{!0}
!llvm.ident = !{!1}

!0 = !{i32 1, !"wchar_size", i32 4}
!1 = !{!"clang version 10.0.0-4ubuntu1 "}
